target datalayout = "e-m:e-p270:32:32-p271:32:32-p272:64:64-i64:64-i128:128-f80:128-n8:16:32:64-S128"
target triple = "x86_64-unknown-linux-gnu"

%"class.std::__cxx11::basic_string" = type { %"struct.std::__cxx11::basic_string<char>::_Alloc_hider", i64, %union.anon }
%"struct.std::__cxx11::basic_string<char>::_Alloc_hider" = type { ptr }
%union.anon = type { i64, [8 x i8] }
%"class.rocksdb::FSRandomAccessFile" = type { ptr }
%"class.rocksdb::PosixMmapReadableFile" = type { %"class.rocksdb::FSRandomAccessFile", i32, %"class.std::__cxx11::basic_string", ptr, i64 }

; Function Attrs: mustprogress nounwind uwtable
define noundef i32 @_ZN7rocksdb7MadviseEPvmi(ptr noundef %addr, i64 noundef %len, i32 noundef %advice) #3 {
entry:
  %addr.addr = alloca ptr, align 8
  %len.addr = alloca i64, align 8
  %advice.addr = alloca i32, align 4
  store ptr %addr, ptr %addr.addr, align 8
  store i64 %len, ptr %len.addr, align 8
  store i32 %advice, ptr %advice.addr, align 4
  %0 = load ptr, ptr %addr.addr, align 8
  %1 = load i64, ptr %len.addr, align 8
  %2 = load i32, ptr %advice.addr, align 4
  %call = call i32 @posix_madvise(ptr noundef %0, i64 noundef %1, i32 noundef %2) #15
  ret i32 %call
}

; Function Attrs: mustprogress nounwind uwtable
define void @_ZN7rocksdb21PosixMmapReadableFile4HintENS_18FSRandomAccessFile13AccessPatternE(ptr noundef nonnull align 8 dereferenceable(64) %this, i32 noundef %pattern) unnamed_addr #3 align 2 {
entry:
  %this.addr = alloca ptr, align 8
  %pattern.addr = alloca i32, align 4
  store ptr %this, ptr %this.addr, align 8
  store i32 %pattern, ptr %pattern.addr, align 4
  %this1 = load ptr, ptr %this.addr, align 8
  %0 = load i32, ptr %pattern.addr, align 4
  switch i32 %0, label %sw.default [
    i32 0, label %sw.bb
    i32 1, label %sw.bb2
    i32 2, label %sw.bb6
    i32 3, label %sw.bb10
    i32 4, label %sw.bb14
  ]

sw.bb:                                            ; preds = %entry
  %mmapped_region_ = getelementptr inbounds %"class.rocksdb::PosixMmapReadableFile", ptr %this1, i32 0, i32 3
  %1 = load ptr, ptr %mmapped_region_, align 8
  %length_ = getelementptr inbounds %"class.rocksdb::PosixMmapReadableFile", ptr %this1, i32 0, i32 4
  %2 = load i64, ptr %length_, align 8
  %call = call noundef i32 @_ZN7rocksdb7MadviseEPvmi(ptr noundef %1, i64 noundef %2, i32 noundef 0)
  br label %sw.epilog

sw.bb2:                                           ; preds = %entry
  %mmapped_region_3 = getelementptr inbounds %"class.rocksdb::PosixMmapReadableFile", ptr %this1, i32 0, i32 3
  %3 = load ptr, ptr %mmapped_region_3, align 8
  %length_4 = getelementptr inbounds %"class.rocksdb::PosixMmapReadableFile", ptr %this1, i32 0, i32 4
  %4 = load i64, ptr %length_4, align 8
  %call5 = call noundef i32 @_ZN7rocksdb7MadviseEPvmi(ptr noundef %3, i64 noundef %4, i32 noundef 1)
  br label %sw.epilog

sw.bb6:                                           ; preds = %entry
  %mmapped_region_7 = getelementptr inbounds %"class.rocksdb::PosixMmapReadableFile", ptr %this1, i32 0, i32 3
  %5 = load ptr, ptr %mmapped_region_7, align 8
  %length_8 = getelementptr inbounds %"class.rocksdb::PosixMmapReadableFile", ptr %this1, i32 0, i32 4
  %6 = load i64, ptr %length_8, align 8
  %call9 = call noundef i32 @_ZN7rocksdb7MadviseEPvmi(ptr noundef %5, i64 noundef %6, i32 noundef 2)
  br label %sw.epilog

sw.bb10:                                          ; preds = %entry
  %mmapped_region_11 = getelementptr inbounds %"class.rocksdb::PosixMmapReadableFile", ptr %this1, i32 0, i32 3
  %7 = load ptr, ptr %mmapped_region_11, align 8
  %length_12 = getelementptr inbounds %"class.rocksdb::PosixMmapReadableFile", ptr %this1, i32 0, i32 4
  %8 = load i64, ptr %length_12, align 8
  %call13 = call noundef i32 @_ZN7rocksdb7MadviseEPvmi(ptr noundef %7, i64 noundef %8, i32 noundef 3)
  br label %sw.epilog

sw.bb14:                                          ; preds = %entry
  %mmapped_region_15 = getelementptr inbounds %"class.rocksdb::PosixMmapReadableFile", ptr %this1, i32 0, i32 3
  %9 = load ptr, ptr %mmapped_region_15, align 8
  %length_16 = getelementptr inbounds %"class.rocksdb::PosixMmapReadableFile", ptr %this1, i32 0, i32 4
  %10 = load i64, ptr %length_16, align 8
  %call17 = call noundef i32 @_ZN7rocksdb7MadviseEPvmi(ptr noundef %9, i64 noundef %10, i32 noundef 4)
  br label %sw.epilog

sw.default:                                       ; preds = %entry
  br label %sw.epilog

sw.epilog:                                        ; preds = %sw.default, %sw.bb14, %sw.bb10, %sw.bb6, %sw.bb2, %sw.bb
  ret void
}