; Function Attrs: mustprogress nounwind uwtable
define void @_ZN7rocksdb21PosixMmapReadableFile4HintENS_18FSRandomAccessFile13AccessPatternE(ptr nocapture noundef nonnull readonly align 8 dereferenceable(64) %this, i32 noundef %pattern) unnamed_addr #3 align 2 {
entry:
  %switch = icmp ult i32 %pattern, 5
  br i1 %switch, label %sw.epilog.sink.split, label %sw.epilog

sw.epilog.sink.split:                             ; preds = %entry
  %mmapped_region_15 = getelementptr inbounds i8, ptr %this, i64 48
  %0 = load ptr, ptr %mmapped_region_15, align 8
  %length_16 = getelementptr inbounds i8, ptr %this, i64 56
  %1 = load i64, ptr %length_16, align 8
  %call.i4 = tail call noundef i32 @posix_madvise(ptr noundef %0, i64 noundef %1, i32 noundef %pattern) #25
  br label %sw.epilog

sw.epilog:                                        ; preds = %entry, %sw.epilog.sink.split
  ret void
}